; Function Attrs: nounwind uwtable
define void @Gia_ManCollectObjs_rec(ptr noundef %0, i32 noundef %1, ptr noundef %2, i32 noundef %3) local_unnamed_addr #2 {
  %5 = getelementptr i8, ptr %2, i64 4
  %.val28 = load i32, ptr %5, align 4
  %6 = icmp eq i32 %.val28, %3
  br i1 %6, label %66, label %7

7:                                                ; preds = %4
  %8 = getelementptr i8, ptr %0, i64 176
  %.val31 = load i32, ptr %8, align 8
  %9 = getelementptr i8, ptr %0, i64 616
  %.val32 = load ptr, ptr %9, align 8
  %10 = sext i32 %1 to i64
  %11 = getelementptr inbounds i32, ptr %.val32, i64 %10
  %12 = load i32, ptr %11, align 4
  %.not = icmp eq i32 %12, %.val31
  br i1 %.not, label %66, label %13

13:                                               ; preds = %7
  store i32 %.val31, ptr %11, align 4
  %14 = getelementptr i8, ptr %0, i64 32
  %.val = load ptr, ptr %14, align 8
  %15 = getelementptr inbounds %struct.Gia_Obj_t_, ptr %.val, i64 %10
  %.val25 = load i64, ptr %15, align 4
  %16 = and i64 %.val25, 2147483648
  %.not.i = icmp ne i64 %16, 0
  %17 = and i64 %.val25, 536870911
  %18 = icmp eq i64 %17, 536870911
  %narrow.i.not = or i1 %.not.i, %18
  br i1 %narrow.i.not, label %thread-pre-split, label %19

19:                                               ; preds = %13
  %20 = trunc i64 %.val25 to i32
  %21 = and i32 %20, 536870911
  %22 = sub nsw i32 %1, %21
  tail call void @Gia_ManCollectObjs_rec(ptr noundef nonnull %0, i32 noundef %22, ptr noundef nonnull %2, i32 noundef %3)
  %.val27 = load i32, ptr %5, align 4
  %23 = icmp eq i32 %.val27, %3
  br i1 %23, label %66, label %24

24:                                               ; preds = %19
  %25 = ptrtoint ptr %15 to i64
  %.val30 = load ptr, ptr %14, align 8
  %26 = ptrtoint ptr %.val30 to i64
  %27 = sub i64 %25, %26
  %28 = sdiv exact i64 %27, 12
  %29 = trunc i64 %28 to i32
  %.val3.i35 = load i64, ptr %15, align 4
  %30 = lshr i64 %.val3.i35, 32
  %31 = trunc nuw i64 %30 to i32
  %32 = and i32 %31, 536870911
  %33 = sub nsw i32 %29, %32
  tail call void @Gia_ManCollectObjs_rec(ptr noundef nonnull %0, i32 noundef %33, ptr noundef nonnull %2, i32 noundef %3)
  %.val26 = load i32, ptr %5, align 4
  %34 = icmp eq i32 %.val26, %3
  br i1 %34, label %66, label %35

thread-pre-split:                                 ; preds = %13
  %.pr = load i32, ptr %5, align 4
  br label %35

35:                                               ; preds = %thread-pre-split, %24
  %36 = phi i32 [ %.pr, %thread-pre-split ], [ %.val26, %24 ]
  %37 = load i32, ptr %2, align 8
  %38 = icmp eq i32 %36, %37
  br i1 %38, label %39, label %.Vec_IntGrow.exit10_crit_edge.i

.Vec_IntGrow.exit10_crit_edge.i:                  ; preds = %35
  %.phi.trans.insert.i = getelementptr inbounds nuw i8, ptr %2, i64 8
  %.pre.i = load ptr, ptr %.phi.trans.insert.i, align 8
  br label %Vec_IntPush.exit

39:                                               ; preds = %35
  %40 = icmp slt i32 %36, 16
  br i1 %40, label %41, label %49

41:                                               ; preds = %39
  %42 = getelementptr inbounds nuw i8, ptr %2, i64 8
  %43 = load ptr, ptr %42, align 8
  %.not9.i.i = icmp eq ptr %43, null
  br i1 %.not9.i.i, label %46, label %44

44:                                               ; preds = %41
  %45 = tail call dereferenceable_or_null(64) ptr @realloc(ptr noundef nonnull %43, i64 noundef 64) #39
  br label %Vec_IntGrow.exit.i

46:                                               ; preds = %41
  %47 = tail call noalias dereferenceable_or_null(64) ptr @malloc(i64 noundef 64) #40
  br label %Vec_IntGrow.exit.i

Vec_IntGrow.exit.i:                               ; preds = %46, %44
  %48 = phi ptr [ %45, %44 ], [ %47, %46 ]
  store ptr %48, ptr %42, align 8
  store i32 16, ptr %2, align 8
  br label %Vec_IntPush.exit

49:                                               ; preds = %39
  %50 = shl nuw nsw i32 %36, 1
  %51 = getelementptr inbounds nuw i8, ptr %2, i64 8
  %52 = load ptr, ptr %51, align 8
  %.not9.i9.i = icmp eq ptr %52, null
  %53 = zext nneg i32 %50 to i64
  %54 = shl nuw nsw i64 %53, 2
  br i1 %.not9.i9.i, label %57, label %55

55:                                               ; preds = %49
  %56 = tail call ptr @realloc(ptr noundef nonnull %52, i64 noundef %54) #39
  br label %59

57:                                               ; preds = %49
  %58 = tail call noalias ptr @malloc(i64 noundef %54) #40
  br label %59

59:                                               ; preds = %57, %55
  %60 = phi ptr [ %56, %55 ], [ %58, %57 ]
  store ptr %60, ptr %51, align 8
  store i32 %50, ptr %2, align 8
  br label %Vec_IntPush.exit

Vec_IntPush.exit:                                 ; preds = %.Vec_IntGrow.exit10_crit_edge.i, %Vec_IntGrow.exit.i, %59
  %61 = phi ptr [ %.pre.i, %.Vec_IntGrow.exit10_crit_edge.i ], [ %60, %59 ], [ %48, %Vec_IntGrow.exit.i ]
  %62 = load i32, ptr %5, align 4
  %63 = add nsw i32 %62, 1
  store i32 %63, ptr %5, align 4
  %64 = sext i32 %62 to i64
  %65 = getelementptr inbounds i32, ptr %61, i64 %64
  store i32 %1, ptr %65, align 4
  br label %66

66:                                               ; preds = %24, %19, %7, %4, %Vec_IntPush.exit
  ret void
}